target datalayout = "e-m:e-p270:32:32-p271:32:32-p272:64:64-i64:64-i128:128-f80:128-n8:16:32:64-S128"
target triple = "x86_64-pc-linux-gnu"

%"class.boost::urls::url_base" = type { ptr, %"class.boost::urls::url_view_base", ptr, i64 }
%"class.boost::urls::url_view_base" = type { [8 x i8], %"struct.boost::urls::detail::url_impl", ptr }
%"struct.boost::urls::detail::url_impl" = type <{ ptr, [8 x i64], [7 x i64], i64, i64, [16 x i8], i16, [2 x i8], i32, i16, i8, [5 x i8] }>

@_ZTVN5boost4urls8url_baseE = linkonce_odr unnamed_addr constant { [7 x ptr] } { [7 x ptr] [ptr null, ptr @_ZTIN5boost4urls8url_baseE, ptr @_ZN5boost4urls8url_baseD2Ev, ptr @_ZN5boost4urls8url_baseD0Ev, ptr @__cxa_pure_virtual, ptr @__cxa_pure_virtual, ptr @__cxa_pure_virtual] }, comdat, align 8

; Function Attrs: mustprogress nounwind uwtable
define linkonce_odr hidden void @_ZN5boost4urls8url_baseC2Ev(ptr noundef nonnull align 8 dereferenceable(216) %0) unnamed_addr #2 comdat align 2 {
  %2 = alloca ptr, align 8
  store ptr %0, ptr %2, align 8, !tbaa !7
  %3 = load ptr, ptr %2, align 8
  %4 = getelementptr inbounds i8, ptr %3, i64 8
  call void @_ZN5boost4urls13url_view_baseC2Ev(ptr noundef nonnull align 8 dereferenceable(192) %4) #16
  store ptr getelementptr inbounds inrange(-16, 40) ({ [7 x ptr] }, ptr @_ZTVN5boost4urls8url_baseE, i32 0, i32 0, i32 2), ptr %3, align 8, !tbaa !14
  %5 = getelementptr inbounds nuw %"class.boost::urls::url_base", ptr %3, i32 0, i32 2
  store ptr null, ptr %5, align 8, !tbaa !18
  %6 = getelementptr inbounds nuw %"class.boost::urls::url_base", ptr %3, i32 0, i32 3
  store i64 0, ptr %6, align 8, !tbaa !26
  ret void
}

; Function Attrs: mustprogress nounwind uwtable
define void @_ZN5boost4urls15static_url_baseC2EPcm(ptr noundef nonnull align 8 dereferenceable(216) %0, ptr noundef %1, i64 noundef %2) unnamed_addr #2 align 2 {
  %4 = alloca ptr, align 8
  %5 = alloca ptr, align 8
  %6 = alloca i64, align 8
  store ptr %0, ptr %4, align 8, !tbaa !7
  store ptr %1, ptr %5, align 8, !tbaa !7
  store i64 %2, ptr %6, align 8, !tbaa !16
  %7 = load ptr, ptr %4, align 8
  call void @_ZN5boost4urls8url_baseC2Ev(ptr noundef nonnull align 8 dereferenceable(216) %7) #16
  store ptr getelementptr inbounds inrange(-16, 40) ({ [7 x ptr] }, ptr @_ZTVN5boost4urls15static_url_baseE, i32 0, i32 0, i32 2), ptr %7, align 8, !tbaa !14
  %8 = load ptr, ptr %5, align 8, !tbaa !7
  %9 = getelementptr inbounds nuw %"class.boost::urls::url_base", ptr %7, i32 0, i32 2
  store ptr %8, ptr %9, align 8, !tbaa !18
  %10 = load i64, ptr %6, align 8, !tbaa !16
  %11 = getelementptr inbounds nuw %"class.boost::urls::url_base", ptr %7, i32 0, i32 3
  store i64 %10, ptr %11, align 8, !tbaa !26
  %12 = getelementptr inbounds nuw %"class.boost::urls::url_base", ptr %7, i32 0, i32 2
  %13 = load ptr, ptr %12, align 8, !tbaa !18
  %14 = getelementptr inbounds i8, ptr %13, i64 0
  store i8 0, ptr %14, align 1, !tbaa !27
  %15 = getelementptr inbounds nuw %"class.boost::urls::url_base", ptr %7, i32 0, i32 2
  %16 = load ptr, ptr %15, align 8, !tbaa !18
  %17 = getelementptr inbounds i8, ptr %7, i64 8
  %18 = getelementptr inbounds nuw %"class.boost::urls::url_view_base", ptr %17, i32 0, i32 1
  %19 = getelementptr inbounds nuw %"struct.boost::urls::detail::url_impl", ptr %18, i32 0, i32 0
  store ptr %16, ptr %19, align 8, !tbaa !28
  ret void
}