; Function Attrs: mustprogress nounwind uwtable
define void @_ZN5boost4urls15static_url_baseC2EPcm(ptr noundef nonnull align 8 dereferenceable(216) %0, ptr noundef %1, i64 noundef %2) unnamed_addr #1 align 2 {
  %4 = getelementptr inbounds i8, ptr %0, i64 8
  tail call void @_ZN5boost4urls13url_view_baseC2Ev(ptr noundef nonnull align 8 dereferenceable(192) %4) #19
  %5 = getelementptr inbounds nuw i8, ptr %0, i64 200
  store ptr getelementptr inbounds inrange(-16, 40) (i8, ptr @_ZTVN5boost4urls15static_url_baseE, i64 16), ptr %0, align 8, !tbaa !3
  store ptr %1, ptr %5, align 8, !tbaa !6
  %6 = getelementptr inbounds nuw i8, ptr %0, i64 208
  store i64 %2, ptr %6, align 8, !tbaa !17
  store i8 0, ptr %1, align 1, !tbaa !18
  %7 = load ptr, ptr %5, align 8, !tbaa !6
  %8 = getelementptr inbounds i8, ptr %0, i64 16
  store ptr %7, ptr %8, align 8, !tbaa !19
  ret void
}